; Function Attrs: mustprogress nounwind uwtable
define dso_local noundef zeroext i1 @_ZNK5clang17OffloadTargetInfoeqERKS0_(ptr noundef nonnull align 8 dereferenceable(96) %0, ptr noundef nonnull align 8 dereferenceable(96) %1) local_unnamed_addr #3 align 2 {
  %.sroa.05.0.copyload = load ptr, ptr %0, align 8
  %.sroa.26.0..sroa_idx = getelementptr inbounds i8, ptr %0, i64 8
  %.sroa.26.0.copyload = load i64, ptr %.sroa.26.0..sroa_idx, align 8
  %.sroa.03.0.copyload = load ptr, ptr %1, align 8
  %.sroa.24.0..sroa_idx = getelementptr inbounds i8, ptr %1, i64 8
  %.sroa.24.0.copyload = load i64, ptr %.sroa.24.0..sroa_idx, align 8
  %.not.i = icmp eq i64 %.sroa.26.0.copyload, %.sroa.24.0.copyload
  br i1 %.not.i, label %3, label %_ZN4llvmeqENS_9StringRefES0_.exit13

3:                                                ; preds = %2
  %4 = icmp eq i64 %.sroa.26.0.copyload, 0
  br i1 %4, label %_ZN4llvmeqENS_9StringRefES0_.exit.thread, label %_ZN4llvmeqENS_9StringRefES0_.exit

_ZN4llvmeqENS_9StringRefES0_.exit:                ; preds = %3
  %bcmp.i = tail call i32 @bcmp(ptr %.sroa.05.0.copyload, ptr %.sroa.03.0.copyload, i64 %.sroa.26.0.copyload)
  %5 = icmp eq i32 %bcmp.i, 0
  br i1 %5, label %_ZN4llvmeqENS_9StringRefES0_.exit.thread, label %_ZN4llvmeqENS_9StringRefES0_.exit13

_ZN4llvmeqENS_9StringRefES0_.exit.thread:         ; preds = %3, %_ZN4llvmeqENS_9StringRefES0_.exit
  %6 = getelementptr inbounds nuw i8, ptr %0, i64 16
  %7 = getelementptr inbounds nuw i8, ptr %1, i64 16
  %8 = tail call noundef zeroext i1 @_ZNK4llvm6Triple16isCompatibleWithERKS0_(ptr noundef nonnull align 8 dereferenceable(56) %6, ptr noundef nonnull align 8 dereferenceable(56) %7) #24
  br i1 %8, label %9, label %_ZN4llvmeqENS_9StringRefES0_.exit13

9:                                                ; preds = %_ZN4llvmeqENS_9StringRefES0_.exit.thread
  %10 = getelementptr inbounds nuw i8, ptr %0, i64 72
  %.sroa.01.0.copyload = load ptr, ptr %10, align 8
  %.sroa.22.0..sroa_idx = getelementptr inbounds i8, ptr %0, i64 80
  %.sroa.22.0.copyload = load i64, ptr %.sroa.22.0..sroa_idx, align 8
  %11 = getelementptr inbounds nuw i8, ptr %1, i64 72
  %.sroa.0.0.copyload = load ptr, ptr %11, align 8
  %.sroa.2.0..sroa_idx = getelementptr inbounds i8, ptr %1, i64 80
  %.sroa.2.0.copyload = load i64, ptr %.sroa.2.0..sroa_idx, align 8
  %.not.i10 = icmp eq i64 %.sroa.22.0.copyload, %.sroa.2.0.copyload
  br i1 %.not.i10, label %12, label %_ZN4llvmeqENS_9StringRefES0_.exit13

12:                                               ; preds = %9
  %13 = icmp eq i64 %.sroa.22.0.copyload, 0
  br i1 %13, label %_ZN4llvmeqENS_9StringRefES0_.exit13, label %14

14:                                               ; preds = %12
  %bcmp.i12 = tail call i32 @bcmp(ptr %.sroa.01.0.copyload, ptr %.sroa.0.0.copyload, i64 %.sroa.22.0.copyload)
  %15 = icmp eq i32 %bcmp.i12, 0
  br label %_ZN4llvmeqENS_9StringRefES0_.exit13

_ZN4llvmeqENS_9StringRefES0_.exit13:              ; preds = %2, %14, %12, %9, %_ZN4llvmeqENS_9StringRefES0_.exit.thread, %_ZN4llvmeqENS_9StringRefES0_.exit
  %16 = phi i1 [ false, %_ZN4llvmeqENS_9StringRefES0_.exit.thread ], [ false, %_ZN4llvmeqENS_9StringRefES0_.exit ], [ %15, %14 ], [ false, %9 ], [ true, %12 ], [ false, %2 ]
  ret i1 %16
}